target datalayout = "e-m:e-p270:32:32-p271:32:32-p272:64:64-i64:64-i128:128-f80:128-n8:16:32:64-S128"
target triple = "x86_64-pc-linux-gnu"

%struct.H5O_obj_create_t = type { i32, ptr, ptr }
%struct.H5D_obj_create_t = type { i64, ptr, i64, i64 }

@H5D_init_g = external global i8, align 1
@H5_libterm_g = external global i8, align 1
@.str.2 = private unnamed_addr constant [100 x i8] c"generated/home/dtcxzyw/WorkSpace/Projects/compilers/llvm-opt-benchmark/bench/hdf5/hdf5/src/H5Dint.c\00", align 1
@H5E_CANTINIT_g = external global i64, align 8
@H5E_DATASET_g = external global i64, align 8
@__func__.H5D__create_named = private unnamed_addr constant [18 x i8] c"H5D__create_named\00", align 1
@.str.16 = private unnamed_addr constant [37 x i8] c"unable to create and link to dataset\00", align 1

; Function Attrs: nounwind uwtable
define ptr @H5D__create_named(ptr noundef %0, ptr noundef %1, i64 noundef %2, ptr noundef %3, i64 noundef %4, i64 noundef %5, i64 noundef %6) #0 {
  %8 = alloca ptr, align 8
  %9 = alloca ptr, align 8
  %10 = alloca i64, align 8
  %11 = alloca ptr, align 8
  %12 = alloca i64, align 8
  %13 = alloca i64, align 8
  %14 = alloca i64, align 8
  %15 = alloca %struct.H5O_obj_create_t, align 8
  %16 = alloca %struct.H5D_obj_create_t, align 8
  %17 = alloca ptr, align 8
  %18 = alloca i8, align 1
  store ptr %0, ptr %8, align 8, !tbaa !46
  store ptr %1, ptr %9, align 8, !tbaa !45
  store i64 %2, ptr %10, align 8, !tbaa !11
  store ptr %3, ptr %11, align 8, !tbaa !48
  store i64 %4, ptr %12, align 8, !tbaa !11
  store i64 %5, ptr %13, align 8, !tbaa !11
  store i64 %6, ptr %14, align 8, !tbaa !11
  call void @llvm.lifetime.start.p0(i64 24, ptr %15) #12
  call void @llvm.lifetime.start.p0(i64 32, ptr %16) #12
  call void @llvm.lifetime.start.p0(i64 8, ptr %17) #12
  store ptr null, ptr %17, align 8, !tbaa !49
  call void @llvm.lifetime.start.p0(i64 1, ptr %18) #12
  store i8 0, ptr %18, align 1, !tbaa !7
  %19 = load i8, ptr @H5D_init_g, align 1, !tbaa !7, !range !9, !noundef !10
  %20 = trunc i8 %19 to i1
  br i1 %20, label %25, label %21

21:                                               ; preds = %7
  %22 = load i8, ptr @H5_libterm_g, align 1, !tbaa !7, !range !9, !noundef !10
  %23 = trunc i8 %22 to i1
  %24 = xor i1 %23, true
  br label %25

25:                                               ; preds = %21, %7
  %26 = phi i1 [ true, %7 ], [ %24, %21 ]
  %27 = xor i1 %26, true
  %28 = xor i1 %27, true
  %29 = zext i1 %28 to i32
  %30 = sext i32 %29 to i64
  %31 = call i64 @llvm.expect.i64(i64 %30, i64 1)
  %32 = icmp ne i64 %31, 0
  br i1 %32, label %33, label %73

33:                                               ; preds = %25
  %34 = load i64, ptr %10, align 8, !tbaa !11
  %35 = getelementptr inbounds nuw %struct.H5D_obj_create_t, ptr %16, i32 0, i32 0
  store i64 %34, ptr %35, align 8, !tbaa !51
  %36 = load ptr, ptr %11, align 8, !tbaa !48
  %37 = getelementptr inbounds nuw %struct.H5D_obj_create_t, ptr %16, i32 0, i32 1
  store ptr %36, ptr %37, align 8, !tbaa !53
  %38 = load i64, ptr %13, align 8, !tbaa !11
  %39 = getelementptr inbounds nuw %struct.H5D_obj_create_t, ptr %16, i32 0, i32 2
  store i64 %38, ptr %39, align 8, !tbaa !54
  %40 = load i64, ptr %14, align 8, !tbaa !11
  %41 = getelementptr inbounds nuw %struct.H5D_obj_create_t, ptr %16, i32 0, i32 3
  store i64 %40, ptr %41, align 8, !tbaa !55
  %42 = getelementptr inbounds nuw %struct.H5O_obj_create_t, ptr %15, i32 0, i32 0
  store i32 1, ptr %42, align 8, !tbaa !56
  %43 = getelementptr inbounds nuw %struct.H5O_obj_create_t, ptr %15, i32 0, i32 1
  store ptr %16, ptr %43, align 8, !tbaa !58
  %44 = getelementptr inbounds nuw %struct.H5O_obj_create_t, ptr %15, i32 0, i32 2
  store ptr null, ptr %44, align 8, !tbaa !59
  %45 = load ptr, ptr %8, align 8, !tbaa !46
  %46 = load ptr, ptr %9, align 8, !tbaa !45
  %47 = load i64, ptr %12, align 8, !tbaa !11
  %48 = call i32 @H5L_link_object(ptr noundef %45, ptr noundef %46, ptr noundef %15, i64 noundef %47)
  %49 = icmp slt i32 %48, 0
  br i1 %49, label %50, label %69

50:                                               ; preds = %33
  br label %51

51:                                               ; preds = %50
  br label %52

52:                                               ; preds = %51
  br label %53

53:                                               ; preds = %52
  %54 = load i64, ptr @H5E_DATASET_g, align 8, !tbaa !11
  %55 = load i64, ptr @H5E_CANTINIT_g, align 8, !tbaa !11
  %56 = call i32 (ptr, ptr, i32, i64, i64, ptr, ...) @H5E_printf_stack(ptr noundef @.str.2, ptr noundef @__func__.H5D__create_named, i32 noundef 397, i64 noundef %54, i64 noundef %55, ptr noundef @.str.16)
  br label %57

57:                                               ; preds = %53
  br label %58

58:                                               ; preds = %57
  store i8 1, ptr %18, align 1, !tbaa !7
  %59 = load i8, ptr %18, align 1, !tbaa !7, !range !9, !noundef !10
  %60 = trunc i8 %59 to i1
  %61 = zext i1 %60 to i8
  store i8 %61, ptr %18, align 1, !tbaa !7
  br label %62

62:                                               ; preds = %58
  br label %63

63:                                               ; preds = %62
  br label %64

64:                                               ; preds = %63
  store ptr null, ptr %17, align 8, !tbaa !49
  br label %72

65:                                               ; No predecessors!
  br label %66

66:                                               ; preds = %65
  br label %67

67:                                               ; preds = %66
  br label %68

68:                                               ; preds = %67
  br label %69

69:                                               ; preds = %68, %33
  %70 = getelementptr inbounds nuw %struct.H5O_obj_create_t, ptr %15, i32 0, i32 2
  %71 = load ptr, ptr %70, align 8, !tbaa !59
  store ptr %71, ptr %17, align 8, !tbaa !49
  br label %72

72:                                               ; preds = %69, %64
  br label %73

73:                                               ; preds = %72, %25
  %74 = load ptr, ptr %17, align 8, !tbaa !49
  call void @llvm.lifetime.end.p0(i64 1, ptr %18) #12
  call void @llvm.lifetime.end.p0(i64 8, ptr %17) #12
  call void @llvm.lifetime.end.p0(i64 32, ptr %16) #12
  call void @llvm.lifetime.end.p0(i64 24, ptr %15) #12
  ret ptr %74
}