; Function Attrs: nounwind uwtable
define ptr @H5D__create_named(ptr noundef %0, ptr noundef %1, i64 noundef %2, ptr noundef %3, i64 noundef %4, i64 noundef %5, i64 noundef %6) local_unnamed_addr #0 {
  %8 = alloca %struct.H5O_obj_create_t, align 8
  %9 = alloca %struct.H5D_obj_create_t, align 8
  call void @llvm.lifetime.start.p0(i64 24, ptr nonnull %8) #12
  call void @llvm.lifetime.start.p0(i64 32, ptr nonnull %9) #12
  %10 = load i8, ptr @H5D_init_g, align 1, !tbaa !3, !range !7, !noundef !8
  %11 = trunc nuw i8 %10 to i1
  %12 = load i8, ptr @H5_libterm_g, align 1, !range !7
  %13 = trunc nuw i8 %12 to i1
  %14 = xor i1 %13, true
  %15 = select i1 %11, i1 true, i1 %14
  br i1 %15, label %16, label %30, !prof !9

16:                                               ; preds = %7
  store i64 %2, ptr %9, align 8, !tbaa !43
  %17 = getelementptr inbounds nuw i8, ptr %9, i64 8
  store ptr %3, ptr %17, align 8, !tbaa !45
  %18 = getelementptr inbounds nuw i8, ptr %9, i64 16
  store i64 %5, ptr %18, align 8, !tbaa !46
  %19 = getelementptr inbounds nuw i8, ptr %9, i64 24
  store i64 %6, ptr %19, align 8, !tbaa !47
  store i32 1, ptr %8, align 8, !tbaa !48
  %20 = getelementptr inbounds nuw i8, ptr %8, i64 8
  store ptr %9, ptr %20, align 8, !tbaa !50
  %21 = getelementptr inbounds nuw i8, ptr %8, i64 16
  store ptr null, ptr %21, align 8, !tbaa !51
  %22 = call i32 @H5L_link_object(ptr noundef %0, ptr noundef %1, ptr noundef nonnull %8, i64 noundef %4) #12
  %23 = icmp slt i32 %22, 0
  br i1 %23, label %24, label %28

24:                                               ; preds = %16
  %25 = load i64, ptr @H5E_DATASET_g, align 8, !tbaa !10
  %26 = load i64, ptr @H5E_CANTINIT_g, align 8, !tbaa !10
  %27 = call i32 (ptr, ptr, i32, i64, i64, ptr, ...) @H5E_printf_stack(ptr noundef nonnull @.str.2, ptr noundef nonnull @__func__.H5D__create_named, i32 noundef 397, i64 noundef %25, i64 noundef %26, ptr noundef nonnull @.str.16) #12
  br label %30

28:                                               ; preds = %16
  %29 = load ptr, ptr %21, align 8, !tbaa !51
  br label %30

30:                                               ; preds = %24, %28, %7
  %.0 = phi ptr [ null, %24 ], [ %29, %28 ], [ null, %7 ]
  call void @llvm.lifetime.end.p0(i64 32, ptr nonnull %9) #12
  call void @llvm.lifetime.end.p0(i64 24, ptr nonnull %8) #12
  ret ptr %.0
}